ARM GAS  C:\Users\uemre\AppData\Local\Temp\ccO27xVq.s 			page 1


   1              		.syntax unified
   2              		.cpu cortex-m0
   3              		.fpu softvfp
   4              		.eabi_attribute 20, 1
   5              		.eabi_attribute 21, 1
   6              		.eabi_attribute 23, 3
   7              		.eabi_attribute 24, 1
   8              		.eabi_attribute 25, 1
   9              		.eabi_attribute 26, 1
  10              		.eabi_attribute 30, 1
  11              		.eabi_attribute 34, 0
  12              		.eabi_attribute 18, 4
  13              		.thumb
  14              		.syntax unified
  15              		.file	"main.c"
  16              		.text
  17              	.Ltext0:
  18              		.cfi_sections	.debug_frame
  19              		.section	.text.displayDotMatrix_E,"ax",%progbits
  20              		.align	2
  21              		.global	displayDotMatrix_E
  22              		.code	16
  23              		.thumb_func
  24              		.type	displayDotMatrix_E, %function
  25              	displayDotMatrix_E:
  26              	.LFB32:
  27              		.file 1 "main.c"
   1:main.c        **** #include "project.h"
   2:main.c        **** #include <stdint.h>
   3:main.c        **** 
   4:main.c        **** #define ROWS 8
   5:main.c        **** #define COLS 8
   6:main.c        **** 
   7:main.c        **** uint8_t dotMatrix_X[ROWS] = {
   8:main.c        ****     0b00111000,
   9:main.c        ****     0b00111000,
  10:main.c        ****     0b00111000,
  11:main.c        ****     0b01111100,
  12:main.c        ****     0B10010010,
  13:main.c        ****     0b00101000,
  14:main.c        ****     0b00100100,
  15:main.c        ****     0b00100010
  16:main.c        **** };
  17:main.c        **** uint8_t dotMatrix_xx[ROWS] = {
  18:main.c        ****     0b00111000,
  19:main.c        ****     0b00111000,
  20:main.c        ****     0b00111000,
  21:main.c        ****     0b01010100,
  22:main.c        ****     0B01010100,
  23:main.c        ****     0b00101000,
  24:main.c        ****     0b01001000,
  25:main.c        ****     0b10001000
  26:main.c        **** };
  27:main.c        **** uint8_t dotMatrix_E[ROWS] = {
  28:main.c        ****     0b11111111,
  29:main.c        ****     0b00000011,
  30:main.c        ****     0b00000011,
ARM GAS  C:\Users\uemre\AppData\Local\Temp\ccO27xVq.s 			page 2


  31:main.c        ****     0b11111111,
  32:main.c        ****     0b11111111,
  33:main.c        ****     0b00000011,
  34:main.c        ****     0b00000011,
  35:main.c        ****     0b11111111
  36:main.c        **** };
  37:main.c        **** uint8_t dotMatrix_R[ROWS] = {
  38:main.c        ****     0b11111111,
  39:main.c        ****     0b11000011,
  40:main.c        ****     0b11111111,
  41:main.c        ****     0b00000111,
  42:main.c        ****     0b00011011,
  43:main.c        ****     0b00110011,
  44:main.c        ****     0b01100011,
  45:main.c        ****     0b11000011
  46:main.c        **** };
  47:main.c        **** uint8_t dotMatrix_M[ROWS] = {
  48:main.c        ****     0b10000001,
  49:main.c        ****     0b11000011,
  50:main.c        ****     0b11111111,
  51:main.c        ****     0b11011011,
  52:main.c        ****     0b11000011,
  53:main.c        ****     0b11000011,
  54:main.c        ****     0b11000011,
  55:main.c        ****     0b11000011
  56:main.c        **** };
  57:main.c        **** void displayDotMatrix_E() {
  28              		.loc 1 57 0
  29              		.cfi_startproc
  30              		@ args = 0, pretend = 0, frame = 0
  31              		@ frame_needed = 0, uses_anonymous_args = 0
  32 0000 10B5     		push	{r4, lr}
  33              		.cfi_def_cfa_offset 8
  34              		.cfi_offset 4, -8
  35              		.cfi_offset 14, -4
  36              	.LVL0:
  37              	.LBB2:
  58:main.c        ****     for (int row = 0; row < ROWS; row++) {
  38              		.loc 1 58 0
  39 0002 0024     		movs	r4, #0
  40 0004 10E0     		b	.L2
  41              	.LVL1:
  42              	.L3:
  59:main.c        ****         Pin_Row_Write(~(1 << row)); // Update the row
  43              		.loc 1 59 0 discriminator 3
  44 0006 0120     		movs	r0, #1
  45 0008 A040     		lsls	r0, r0, r4
  46 000a C043     		mvns	r0, r0
  47 000c C0B2     		uxtb	r0, r0
  48 000e FFF7FEFF 		bl	Pin_Row_Write
  49              	.LVL2:
  60:main.c        ****         Pin_Col_Write(dotMatrix_E[row]); // Update the column
  50              		.loc 1 60 0 discriminator 3
  51 0012 074B     		ldr	r3, .L4
  52 0014 185D     		ldrb	r0, [r3, r4]
  53 0016 FFF7FEFF 		bl	Pin_Col_Write
  54              	.LVL3:
ARM GAS  C:\Users\uemre\AppData\Local\Temp\ccO27xVq.s 			page 3


  61:main.c        ****         CyDelay(1); // Delay for visualization
  55              		.loc 1 61 0 discriminator 3
  56 001a 0120     		movs	r0, #1
  57 001c FFF7FEFF 		bl	CyDelay
  58              	.LVL4:
  62:main.c        ****         Pin_Row_Write(0); // Turn off the row
  59              		.loc 1 62 0 discriminator 3
  60 0020 0020     		movs	r0, #0
  61 0022 FFF7FEFF 		bl	Pin_Row_Write
  62              	.LVL5:
  58:main.c        ****         Pin_Row_Write(~(1 << row)); // Update the row
  63              		.loc 1 58 0 discriminator 3
  64 0026 0134     		adds	r4, r4, #1
  65              	.LVL6:
  66              	.L2:
  58:main.c        ****         Pin_Row_Write(~(1 << row)); // Update the row
  67              		.loc 1 58 0 is_stmt 0 discriminator 1
  68 0028 072C     		cmp	r4, #7
  69 002a ECDD     		ble	.L3
  70              	.LBE2:
  63:main.c        ****     }
  64:main.c        **** }
  71              		.loc 1 64 0 is_stmt 1
  72              		@ sp needed
  73              	.LVL7:
  74 002c 10BD     		pop	{r4, pc}
  75              	.L5:
  76 002e C046     		.align	2
  77              	.L4:
  78 0030 00000000 		.word	.LANCHOR0
  79              		.cfi_endproc
  80              	.LFE32:
  81              		.size	displayDotMatrix_E, .-displayDotMatrix_E
  82              		.section	.text.displayDotMatrix_R,"ax",%progbits
  83              		.align	2
  84              		.global	displayDotMatrix_R
  85              		.code	16
  86              		.thumb_func
  87              		.type	displayDotMatrix_R, %function
  88              	displayDotMatrix_R:
  89              	.LFB33:
  65:main.c        **** 
  66:main.c        **** void displayDotMatrix_R() {
  90              		.loc 1 66 0
  91              		.cfi_startproc
  92              		@ args = 0, pretend = 0, frame = 0
  93              		@ frame_needed = 0, uses_anonymous_args = 0
  94 0000 10B5     		push	{r4, lr}
  95              		.cfi_def_cfa_offset 8
  96              		.cfi_offset 4, -8
  97              		.cfi_offset 14, -4
  98              	.LVL8:
  99              	.LBB3:
  67:main.c        ****     for (int row = 0; row < ROWS; row++) {
 100              		.loc 1 67 0
 101 0002 0024     		movs	r4, #0
 102 0004 11E0     		b	.L7
ARM GAS  C:\Users\uemre\AppData\Local\Temp\ccO27xVq.s 			page 4


 103              	.LVL9:
 104              	.L8:
  68:main.c        ****         Pin_Row_Write(~(1 << row)); // Update the row
 105              		.loc 1 68 0 discriminator 3
 106 0006 0120     		movs	r0, #1
 107 0008 A040     		lsls	r0, r0, r4
 108 000a C043     		mvns	r0, r0
 109 000c C0B2     		uxtb	r0, r0
 110 000e FFF7FEFF 		bl	Pin_Row_Write
 111              	.LVL10:
  69:main.c        ****         Pin_Col_Write(dotMatrix_R[row]); // Update the column
 112              		.loc 1 69 0 discriminator 3
 113 0012 074B     		ldr	r3, .L9
 114 0014 1B19     		adds	r3, r3, r4
 115 0016 187A     		ldrb	r0, [r3, #8]
 116 0018 FFF7FEFF 		bl	Pin_Col_Write
 117              	.LVL11:
  70:main.c        ****         CyDelay(1); // Delay for visualization
 118              		.loc 1 70 0 discriminator 3
 119 001c 0120     		movs	r0, #1
 120 001e FFF7FEFF 		bl	CyDelay
 121              	.LVL12:
  71:main.c        ****         Pin_Row_Write(0); // Turn off the row
 122              		.loc 1 71 0 discriminator 3
 123 0022 0020     		movs	r0, #0
 124 0024 FFF7FEFF 		bl	Pin_Row_Write
 125              	.LVL13:
  67:main.c        ****         Pin_Row_Write(~(1 << row)); // Update the row
 126              		.loc 1 67 0 discriminator 3
 127 0028 0134     		adds	r4, r4, #1
 128              	.LVL14:
 129              	.L7:
  67:main.c        ****         Pin_Row_Write(~(1 << row)); // Update the row
 130              		.loc 1 67 0 is_stmt 0 discriminator 1
 131 002a 072C     		cmp	r4, #7
 132 002c EBDD     		ble	.L8
 133              	.LBE3:
  72:main.c        ****     }
  73:main.c        **** }
 134              		.loc 1 73 0 is_stmt 1
 135              		@ sp needed
 136              	.LVL15:
 137 002e 10BD     		pop	{r4, pc}
 138              	.L10:
 139              		.align	2
 140              	.L9:
 141 0030 00000000 		.word	.LANCHOR0
 142              		.cfi_endproc
 143              	.LFE33:
 144              		.size	displayDotMatrix_R, .-displayDotMatrix_R
 145              		.section	.text.displayDotMatrix_M,"ax",%progbits
 146              		.align	2
 147              		.global	displayDotMatrix_M
 148              		.code	16
 149              		.thumb_func
 150              		.type	displayDotMatrix_M, %function
 151              	displayDotMatrix_M:
ARM GAS  C:\Users\uemre\AppData\Local\Temp\ccO27xVq.s 			page 5


 152              	.LFB34:
  74:main.c        **** void displayDotMatrix_M() {
 153              		.loc 1 74 0
 154              		.cfi_startproc
 155              		@ args = 0, pretend = 0, frame = 0
 156              		@ frame_needed = 0, uses_anonymous_args = 0
 157 0000 10B5     		push	{r4, lr}
 158              		.cfi_def_cfa_offset 8
 159              		.cfi_offset 4, -8
 160              		.cfi_offset 14, -4
 161              	.LVL16:
 162              	.LBB4:
  75:main.c        ****     for (int row = 0; row < ROWS; row++) {
 163              		.loc 1 75 0
 164 0002 0024     		movs	r4, #0
 165 0004 11E0     		b	.L12
 166              	.LVL17:
 167              	.L13:
  76:main.c        ****         Pin_Row_Write(~(1 << row)); // Update the row
 168              		.loc 1 76 0 discriminator 3
 169 0006 0120     		movs	r0, #1
 170 0008 A040     		lsls	r0, r0, r4
 171 000a C043     		mvns	r0, r0
 172 000c C0B2     		uxtb	r0, r0
 173 000e FFF7FEFF 		bl	Pin_Row_Write
 174              	.LVL18:
  77:main.c        ****         Pin_Col_Write(dotMatrix_M[row]); // Update the column
 175              		.loc 1 77 0 discriminator 3
 176 0012 074B     		ldr	r3, .L14
 177 0014 1B19     		adds	r3, r3, r4
 178 0016 187C     		ldrb	r0, [r3, #16]
 179 0018 FFF7FEFF 		bl	Pin_Col_Write
 180              	.LVL19:
  78:main.c        ****         CyDelay(1); // Delay for visualization
 181              		.loc 1 78 0 discriminator 3
 182 001c 0120     		movs	r0, #1
 183 001e FFF7FEFF 		bl	CyDelay
 184              	.LVL20:
  79:main.c        ****         Pin_Row_Write(0); // Turn off the row
 185              		.loc 1 79 0 discriminator 3
 186 0022 0020     		movs	r0, #0
 187 0024 FFF7FEFF 		bl	Pin_Row_Write
 188              	.LVL21:
  75:main.c        ****         Pin_Row_Write(~(1 << row)); // Update the row
 189              		.loc 1 75 0 discriminator 3
 190 0028 0134     		adds	r4, r4, #1
 191              	.LVL22:
 192              	.L12:
  75:main.c        ****         Pin_Row_Write(~(1 << row)); // Update the row
 193              		.loc 1 75 0 is_stmt 0 discriminator 1
 194 002a 072C     		cmp	r4, #7
 195 002c EBDD     		ble	.L13
 196              	.LBE4:
  80:main.c        ****     }
  81:main.c        **** }
 197              		.loc 1 81 0 is_stmt 1
 198              		@ sp needed
ARM GAS  C:\Users\uemre\AppData\Local\Temp\ccO27xVq.s 			page 6


 199              	.LVL23:
 200 002e 10BD     		pop	{r4, pc}
 201              	.L15:
 202              		.align	2
 203              	.L14:
 204 0030 00000000 		.word	.LANCHOR0
 205              		.cfi_endproc
 206              	.LFE34:
 207              		.size	displayDotMatrix_M, .-displayDotMatrix_M
 208              		.section	.text.clearDotMatrix,"ax",%progbits
 209              		.align	2
 210              		.global	clearDotMatrix
 211              		.code	16
 212              		.thumb_func
 213              		.type	clearDotMatrix, %function
 214              	clearDotMatrix:
 215              	.LFB35:
  82:main.c        **** 
  83:main.c        **** void clearDotMatrix() {
 216              		.loc 1 83 0
 217              		.cfi_startproc
 218              		@ args = 0, pretend = 0, frame = 0
 219              		@ frame_needed = 0, uses_anonymous_args = 0
 220 0000 10B5     		push	{r4, lr}
 221              		.cfi_def_cfa_offset 8
 222              		.cfi_offset 4, -8
 223              		.cfi_offset 14, -4
 224              	.LVL24:
 225              	.LBB5:
  84:main.c        ****     for (int row = 0; row < ROWS; row++) {
 226              		.loc 1 84 0
 227 0002 0024     		movs	r4, #0
 228 0004 0CE0     		b	.L17
 229              	.LVL25:
 230              	.L18:
  85:main.c        ****         Pin_Row_Write(~(1 << row)); // Update the row with all zeros
 231              		.loc 1 85 0 discriminator 3
 232 0006 0120     		movs	r0, #1
 233 0008 A040     		lsls	r0, r0, r4
 234 000a C043     		mvns	r0, r0
 235 000c C0B2     		uxtb	r0, r0
 236 000e FFF7FEFF 		bl	Pin_Row_Write
 237              	.LVL26:
  86:main.c        ****         Pin_Col_Write(0); // Update the column with all zeros to turn off LEDs
 238              		.loc 1 86 0 discriminator 3
 239 0012 0020     		movs	r0, #0
 240 0014 FFF7FEFF 		bl	Pin_Col_Write
 241              	.LVL27:
  87:main.c        ****         // Delay for visualization (optional)
  88:main.c        ****         Pin_Row_Write(0); // Turn off the row
 242              		.loc 1 88 0 discriminator 3
 243 0018 0020     		movs	r0, #0
 244 001a FFF7FEFF 		bl	Pin_Row_Write
 245              	.LVL28:
  84:main.c        ****         Pin_Row_Write(~(1 << row)); // Update the row with all zeros
 246              		.loc 1 84 0 discriminator 3
 247 001e 0134     		adds	r4, r4, #1
ARM GAS  C:\Users\uemre\AppData\Local\Temp\ccO27xVq.s 			page 7


 248              	.LVL29:
 249              	.L17:
  84:main.c        ****         Pin_Row_Write(~(1 << row)); // Update the row with all zeros
 250              		.loc 1 84 0 is_stmt 0 discriminator 1
 251 0020 072C     		cmp	r4, #7
 252 0022 F0DD     		ble	.L18
 253              	.LBE5:
  89:main.c        ****     }
  90:main.c        **** }
 254              		.loc 1 90 0 is_stmt 1
 255              		@ sp needed
 256              	.LVL30:
 257 0024 10BD     		pop	{r4, pc}
 258              		.cfi_endproc
 259              	.LFE35:
 260              		.size	clearDotMatrix, .-clearDotMatrix
 261 0026 C046     		.section	.text.displayDotMatrix_xx,"ax",%progbits
 262              		.align	2
 263              		.global	displayDotMatrix_xx
 264              		.code	16
 265              		.thumb_func
 266              		.type	displayDotMatrix_xx, %function
 267              	displayDotMatrix_xx:
 268              	.LFB36:
  91:main.c        **** void displayDotMatrix_xx() {
 269              		.loc 1 91 0
 270              		.cfi_startproc
 271              		@ args = 0, pretend = 0, frame = 0
 272              		@ frame_needed = 0, uses_anonymous_args = 0
 273 0000 10B5     		push	{r4, lr}
 274              		.cfi_def_cfa_offset 8
 275              		.cfi_offset 4, -8
 276              		.cfi_offset 14, -4
 277              	.LVL31:
 278              	.LBB6:
  92:main.c        ****     for (int row = 0; row < ROWS; row++) {
 279              		.loc 1 92 0
 280 0002 0024     		movs	r4, #0
 281 0004 11E0     		b	.L20
 282              	.LVL32:
 283              	.L21:
  93:main.c        ****         Pin_Row_Write(~(1 << row)); // Update the row
 284              		.loc 1 93 0 discriminator 3
 285 0006 0120     		movs	r0, #1
 286 0008 A040     		lsls	r0, r0, r4
 287 000a C043     		mvns	r0, r0
 288 000c C0B2     		uxtb	r0, r0
 289 000e FFF7FEFF 		bl	Pin_Row_Write
 290              	.LVL33:
  94:main.c        ****         Pin_Col_Write(dotMatrix_xx[row]); // Update the column
 291              		.loc 1 94 0 discriminator 3
 292 0012 074B     		ldr	r3, .L22
 293 0014 1B19     		adds	r3, r3, r4
 294 0016 187E     		ldrb	r0, [r3, #24]
 295 0018 FFF7FEFF 		bl	Pin_Col_Write
 296              	.LVL34:
  95:main.c        ****         CyDelay(1); // Delay for visualization
ARM GAS  C:\Users\uemre\AppData\Local\Temp\ccO27xVq.s 			page 8


 297              		.loc 1 95 0 discriminator 3
 298 001c 0120     		movs	r0, #1
 299 001e FFF7FEFF 		bl	CyDelay
 300              	.LVL35:
  96:main.c        ****         Pin_Row_Write(0); // Turn off the row
 301              		.loc 1 96 0 discriminator 3
 302 0022 0020     		movs	r0, #0
 303 0024 FFF7FEFF 		bl	Pin_Row_Write
 304              	.LVL36:
  92:main.c        ****         Pin_Row_Write(~(1 << row)); // Update the row
 305              		.loc 1 92 0 discriminator 3
 306 0028 0134     		adds	r4, r4, #1
 307              	.LVL37:
 308              	.L20:
  92:main.c        ****         Pin_Row_Write(~(1 << row)); // Update the row
 309              		.loc 1 92 0 is_stmt 0 discriminator 1
 310 002a 072C     		cmp	r4, #7
 311 002c EBDD     		ble	.L21
 312              	.LBE6:
  97:main.c        ****     }
  98:main.c        **** }
 313              		.loc 1 98 0 is_stmt 1
 314              		@ sp needed
 315              	.LVL38:
 316 002e 10BD     		pop	{r4, pc}
 317              	.L23:
 318              		.align	2
 319              	.L22:
 320 0030 00000000 		.word	.LANCHOR0
 321              		.cfi_endproc
 322              	.LFE36:
 323              		.size	displayDotMatrix_xx, .-displayDotMatrix_xx
 324              		.section	.text.delay,"ax",%progbits
 325              		.align	2
 326              		.global	delay
 327              		.code	16
 328              		.thumb_func
 329              		.type	delay, %function
 330              	delay:
 331              	.LFB37:
  99:main.c        **** 
 100:main.c        ****   void delay(void (*func)()) {
 332              		.loc 1 100 0
 333              		.cfi_startproc
 334              		@ args = 0, pretend = 0, frame = 0
 335              		@ frame_needed = 0, uses_anonymous_args = 0
 336              	.LVL39:
 337 0000 70B5     		push	{r4, r5, r6, lr}
 338              		.cfi_def_cfa_offset 16
 339              		.cfi_offset 4, -16
 340              		.cfi_offset 5, -12
 341              		.cfi_offset 6, -8
 342              		.cfi_offset 14, -4
 343 0002 0500     		movs	r5, r0
 344              	.LVL40:
 101:main.c        ****     int count;
 102:main.c        ****     for (count = 0; count < 100; count++) {
ARM GAS  C:\Users\uemre\AppData\Local\Temp\ccO27xVq.s 			page 9


 345              		.loc 1 102 0
 346 0004 0024     		movs	r4, #0
 347 0006 01E0     		b	.L25
 348              	.LVL41:
 349              	.L26:
 103:main.c        ****         func();
 350              		.loc 1 103 0 discriminator 3
 351 0008 A847     		blx	r5
 352              	.LVL42:
 102:main.c        ****         func();
 353              		.loc 1 102 0 discriminator 3
 354 000a 0134     		adds	r4, r4, #1
 355              	.LVL43:
 356              	.L25:
 102:main.c        ****         func();
 357              		.loc 1 102 0 is_stmt 0 discriminator 1
 358 000c 632C     		cmp	r4, #99
 359 000e FBDD     		ble	.L26
 104:main.c        ****     }}
 360              		.loc 1 104 0 is_stmt 1
 361              		@ sp needed
 362              	.LVL44:
 363              	.LVL45:
 364 0010 70BD     		pop	{r4, r5, r6, pc}
 365              		.cfi_endproc
 366              	.LFE37:
 367              		.size	delay, .-delay
 368 0012 C046     		.section	.text.displayDotMatrix_X,"ax",%progbits
 369              		.align	2
 370              		.global	displayDotMatrix_X
 371              		.code	16
 372              		.thumb_func
 373              		.type	displayDotMatrix_X, %function
 374              	displayDotMatrix_X:
 375              	.LFB38:
 105:main.c        **** void displayDotMatrix_X() {
 376              		.loc 1 105 0
 377              		.cfi_startproc
 378              		@ args = 0, pretend = 0, frame = 0
 379              		@ frame_needed = 0, uses_anonymous_args = 0
 380 0000 10B5     		push	{r4, lr}
 381              		.cfi_def_cfa_offset 8
 382              		.cfi_offset 4, -8
 383              		.cfi_offset 14, -4
 384              	.LVL46:
 385              	.LBB7:
 106:main.c        ****     for (int row = 0; row < ROWS; row++) {
 386              		.loc 1 106 0
 387 0002 0024     		movs	r4, #0
 388 0004 12E0     		b	.L28
 389              	.LVL47:
 390              	.L29:
 107:main.c        ****         Pin_Row_Write(~(1 << row)); // Update the row
 391              		.loc 1 107 0 discriminator 3
 392 0006 0120     		movs	r0, #1
 393 0008 A040     		lsls	r0, r0, r4
 394 000a C043     		mvns	r0, r0
ARM GAS  C:\Users\uemre\AppData\Local\Temp\ccO27xVq.s 			page 10


 395 000c C0B2     		uxtb	r0, r0
 396 000e FFF7FEFF 		bl	Pin_Row_Write
 397              	.LVL48:
 108:main.c        ****         Pin_Col_Write(dotMatrix_X[row]); // Update the column
 398              		.loc 1 108 0 discriminator 3
 399 0012 084B     		ldr	r3, .L30
 400 0014 1B19     		adds	r3, r3, r4
 401 0016 2022     		movs	r2, #32
 402 0018 985C     		ldrb	r0, [r3, r2]
 403 001a FFF7FEFF 		bl	Pin_Col_Write
 404              	.LVL49:
 109:main.c        ****         CyDelay(1); // Delay for visualization
 405              		.loc 1 109 0 discriminator 3
 406 001e 0120     		movs	r0, #1
 407 0020 FFF7FEFF 		bl	CyDelay
 408              	.LVL50:
 110:main.c        ****         Pin_Row_Write(0); // Turn off the row
 409              		.loc 1 110 0 discriminator 3
 410 0024 0020     		movs	r0, #0
 411 0026 FFF7FEFF 		bl	Pin_Row_Write
 412              	.LVL51:
 106:main.c        ****         Pin_Row_Write(~(1 << row)); // Update the row
 413              		.loc 1 106 0 discriminator 3
 414 002a 0134     		adds	r4, r4, #1
 415              	.LVL52:
 416              	.L28:
 106:main.c        ****         Pin_Row_Write(~(1 << row)); // Update the row
 417              		.loc 1 106 0 is_stmt 0 discriminator 1
 418 002c 072C     		cmp	r4, #7
 419 002e EADD     		ble	.L29
 420              	.LBE7:
 111:main.c        ****     }
 112:main.c        **** }
 421              		.loc 1 112 0 is_stmt 1
 422              		@ sp needed
 423              	.LVL53:
 424 0030 10BD     		pop	{r4, pc}
 425              	.L31:
 426 0032 C046     		.align	2
 427              	.L30:
 428 0034 00000000 		.word	.LANCHOR0
 429              		.cfi_endproc
 430              	.LFE38:
 431              		.size	displayDotMatrix_X, .-displayDotMatrix_X
 432              		.section	.text.main,"ax",%progbits
 433              		.align	2
 434              		.global	main
 435              		.code	16
 436              		.thumb_func
 437              		.type	main, %function
 438              	main:
 439              	.LFB39:
 113:main.c        **** 
 114:main.c        **** 
 115:main.c        **** int main(void){
 440              		.loc 1 115 0
 441              		.cfi_startproc
ARM GAS  C:\Users\uemre\AppData\Local\Temp\ccO27xVq.s 			page 11


 442              		@ Volatile: function does not return.
 443              		@ args = 0, pretend = 0, frame = 0
 444              		@ frame_needed = 0, uses_anonymous_args = 0
 445 0000 10B5     		push	{r4, lr}
 446              		.cfi_def_cfa_offset 8
 447              		.cfi_offset 4, -8
 448              		.cfi_offset 14, -4
 116:main.c        **** 
 117:main.c        ****     CyGlobalIntEnable; // Enable global interrupts
 449              		.loc 1 117 0
 450              		.syntax divided
 451              	@ 117 "main.c" 1
 452 0002 62B6     		CPSIE   i
 453              	@ 0 "" 2
 454              		.thumb
 455              		.syntax unified
 456              	.L33:
 118:main.c        ****    for(;;){
 119:main.c        ****     
 120:main.c        ****    displayDotMatrix_E();
 457              		.loc 1 120 0 discriminator 1
 458 0004 FFF7FEFF 		bl	displayDotMatrix_E
 459              	.LVL54:
 121:main.c        ****     delay(displayDotMatrix_E);
 460              		.loc 1 121 0 discriminator 1
 461 0008 0948     		ldr	r0, .L34
 462 000a FFF7FEFF 		bl	delay
 463              	.LVL55:
 122:main.c        ****     clearDotMatrix(); 
 464              		.loc 1 122 0 discriminator 1
 465 000e FFF7FEFF 		bl	clearDotMatrix
 466              	.LVL56:
 123:main.c        ****     
 124:main.c        ****        displayDotMatrix_M();
 467              		.loc 1 124 0 discriminator 1
 468 0012 FFF7FEFF 		bl	displayDotMatrix_M
 469              	.LVL57:
 125:main.c        ****        delay(displayDotMatrix_M);
 470              		.loc 1 125 0 discriminator 1
 471 0016 0748     		ldr	r0, .L34+4
 472 0018 FFF7FEFF 		bl	delay
 473              	.LVL58:
 126:main.c        ****        clearDotMatrix();
 474              		.loc 1 126 0 discriminator 1
 475 001c FFF7FEFF 		bl	clearDotMatrix
 476              	.LVL59:
 127:main.c        ****     
 128:main.c        ****     
 129:main.c        ****        displayDotMatrix_R();
 477              		.loc 1 129 0 discriminator 1
 478 0020 FFF7FEFF 		bl	displayDotMatrix_R
 479              	.LVL60:
 130:main.c        ****         delay(displayDotMatrix_R);
 480              		.loc 1 130 0 discriminator 1
 481 0024 0448     		ldr	r0, .L34+8
 482 0026 FFF7FEFF 		bl	delay
 483              	.LVL61:
ARM GAS  C:\Users\uemre\AppData\Local\Temp\ccO27xVq.s 			page 12


 131:main.c        ****          clearDotMatrix();
 484              		.loc 1 131 0 discriminator 1
 485 002a FFF7FEFF 		bl	clearDotMatrix
 486              	.LVL62:
 487 002e E9E7     		b	.L33
 488              	.L35:
 489              		.align	2
 490              	.L34:
 491 0030 00000000 		.word	displayDotMatrix_E
 492 0034 00000000 		.word	displayDotMatrix_M
 493 0038 00000000 		.word	displayDotMatrix_R
 494              		.cfi_endproc
 495              	.LFE39:
 496              		.size	main, .-main
 497              		.global	dotMatrix_M
 498              		.global	dotMatrix_R
 499              		.global	dotMatrix_E
 500              		.global	dotMatrix_xx
 501              		.global	dotMatrix_X
 502              		.data
 503              		.align	2
 504              		.set	.LANCHOR0,. + 0
 505              		.type	dotMatrix_E, %object
 506              		.size	dotMatrix_E, 8
 507              	dotMatrix_E:
 508 0000 FF       		.byte	-1
 509 0001 03       		.byte	3
 510 0002 03       		.byte	3
 511 0003 FF       		.byte	-1
 512 0004 FF       		.byte	-1
 513 0005 03       		.byte	3
 514 0006 03       		.byte	3
 515 0007 FF       		.byte	-1
 516              		.type	dotMatrix_R, %object
 517              		.size	dotMatrix_R, 8
 518              	dotMatrix_R:
 519 0008 FF       		.byte	-1
 520 0009 C3       		.byte	-61
 521 000a FF       		.byte	-1
 522 000b 07       		.byte	7
 523 000c 1B       		.byte	27
 524 000d 33       		.byte	51
 525 000e 63       		.byte	99
 526 000f C3       		.byte	-61
 527              		.type	dotMatrix_M, %object
 528              		.size	dotMatrix_M, 8
 529              	dotMatrix_M:
 530 0010 81       		.byte	-127
 531 0011 C3       		.byte	-61
 532 0012 FF       		.byte	-1
 533 0013 DB       		.byte	-37
 534 0014 C3       		.byte	-61
 535 0015 C3       		.byte	-61
 536 0016 C3       		.byte	-61
 537 0017 C3       		.byte	-61
 538              		.type	dotMatrix_xx, %object
 539              		.size	dotMatrix_xx, 8
ARM GAS  C:\Users\uemre\AppData\Local\Temp\ccO27xVq.s 			page 13


 540              	dotMatrix_xx:
 541 0018 38       		.byte	56
 542 0019 38       		.byte	56
 543 001a 38       		.byte	56
 544 001b 54       		.byte	84
 545 001c 54       		.byte	84
 546 001d 28       		.byte	40
 547 001e 48       		.byte	72
 548 001f 88       		.byte	-120
 549              		.type	dotMatrix_X, %object
 550              		.size	dotMatrix_X, 8
 551              	dotMatrix_X:
 552 0020 38       		.byte	56
 553 0021 38       		.byte	56
 554 0022 38       		.byte	56
 555 0023 7C       		.byte	124
 556 0024 92       		.byte	-110
 557 0025 28       		.byte	40
 558 0026 24       		.byte	36
 559 0027 22       		.byte	34
 560              		.text
 561              	.Letext0:
 562              		.file 2 "c:\\program files (x86)\\cypress\\psoc creator\\4.4\\psoc creator\\import\\gnu\\arm\\5.4.
 563              		.file 3 "c:\\program files (x86)\\cypress\\psoc creator\\4.4\\psoc creator\\import\\gnu\\arm\\5.4.
 564              		.file 4 "Generated_Source\\PSoC4/Pin_Row.h"
 565              		.file 5 "Generated_Source\\PSoC4/Pin_Col.h"
 566              		.file 6 "Generated_Source\\PSoC4/CyLib.h"