ARM GAS  C:\Users\uemre\AppData\Local\Temp\ccoGRYeJ.s 			page 1


   1              		.syntax unified
   2              		.cpu cortex-m0
   3              		.fpu softvfp
   4              		.eabi_attribute 20, 1
   5              		.eabi_attribute 21, 1
   6              		.eabi_attribute 23, 3
   7              		.eabi_attribute 24, 1
   8              		.eabi_attribute 25, 1
   9              		.eabi_attribute 26, 1
  10              		.eabi_attribute 30, 1
  11              		.eabi_attribute 34, 0
  12              		.eabi_attribute 18, 4
  13              		.thumb
  14              		.syntax unified
  15              		.file	"main.c"
  16              		.text
  17              	.Ltext0:
  18              		.cfi_sections	.debug_frame
  19              		.section	.text.displayDotMatrix_7,"ax",%progbits
  20              		.align	2
  21              		.global	displayDotMatrix_7
  22              		.code	16
  23              		.thumb_func
  24              		.type	displayDotMatrix_7, %function
  25              	displayDotMatrix_7:
  26              	.LFB32:
  27              		.file 1 "main.c"
   1:main.c        **** /* ========================================
   2:main.c        ****  *
   3:main.c        ****  * Copyright YOUR COMPANY, THE YEAR
   4:main.c        ****  * All Rights Reserved
   5:main.c        ****  * UNPUBLISHED, LICENSED SOFTWARE.
   6:main.c        ****  *
   7:main.c        ****  * CONFIDENTIAL AND PROPRIETARY INFORMATION
   8:main.c        ****  * WHICH IS THE PROPERTY OF your company.
   9:main.c        ****  *
  10:main.c        ****  * ========================================
  11:main.c        **** */
  12:main.c        **** #include "project.h"
  13:main.c        **** #include <stdint.h>
  14:main.c        **** 
  15:main.c        **** #define ROWS 8
  16:main.c        **** #define COLS 8
  17:main.c        **** 
  18:main.c        **** uint8_t dotMatrix_1[ROWS] = {
  19:main.c        ****     0b00000001,
  20:main.c        ****     0b00000001,
  21:main.c        ****     0b00000001,
  22:main.c        ****     0b00000001,
  23:main.c        ****     0b00000001,
  24:main.c        ****     0b00000001,
  25:main.c        ****     0b00000001,
  26:main.c        ****     0b11111111
  27:main.c        **** };
  28:main.c        **** uint8_t dotMatrix_6[ROWS] = {
  29:main.c        ****     0b00000000,
  30:main.c        ****     0b00000000,
ARM GAS  C:\Users\uemre\AppData\Local\Temp\ccoGRYeJ.s 			page 2


  31:main.c        ****     0b00111000,
  32:main.c        ****     0b00100000,
  33:main.c        ****     0b00100000,
  34:main.c        ****     0b00100000,
  35:main.c        ****     0b00000000,
  36:main.c        ****     0b00000000
  37:main.c        **** };
  38:main.c        **** uint8_t dotMatrix_2[ROWS] = {
  39:main.c        ****     0b11111110,
  40:main.c        ****     0b10000000,
  41:main.c        ****     0b10000000,
  42:main.c        ****     0b10000000,
  43:main.c        ****     0b10000000,
  44:main.c        ****     0b10000000,
  45:main.c        ****     0b10000000,
  46:main.c        ****     0b10000000
  47:main.c        **** };
  48:main.c        **** uint8_t dotMatrix_3[ROWS] = {
  49:main.c        ****     0b00000010,
  50:main.c        ****     0b00000010,
  51:main.c        ****     0b00000010,
  52:main.c        ****     0b00000010,
  53:main.c        ****     0b00000010,
  54:main.c        ****     0b00000010,
  55:main.c        ****     0b01111110,
  56:main.c        ****     0b00000000
  57:main.c        **** };
  58:main.c        **** uint8_t dotMatrix_4[ROWS] = {
  59:main.c        ****     0b00000000,
  60:main.c        ****     0b01111100,
  61:main.c        ****     0b01000000,
  62:main.c        ****     0b01000000,
  63:main.c        ****     0b01000000,
  64:main.c        ****     0b01000000,
  65:main.c        ****     0b01000000,
  66:main.c        ****     0b00000000
  67:main.c        **** };
  68:main.c        **** uint8_t dotMatrix_5[ROWS] = {
  69:main.c        ****     0b00000000,
  70:main.c        ****     0b00000100,
  71:main.c        ****     0b00000100,
  72:main.c        ****     0b00000100,
  73:main.c        ****     0b00000100,
  74:main.c        ****     0b00111100,
  75:main.c        ****     0b00000000,
  76:main.c        ****     0b00000000};
  77:main.c        **** 
  78:main.c        **** uint8_t dotMatrix_7[ROWS] = {
  79:main.c        ****     0b00000000,
  80:main.c        ****     0b00000000,
  81:main.c        ****     0b00001000,
  82:main.c        ****     0b00001000,
  83:main.c        ****     0b00011000,
  84:main.c        ****     0b00000000,
  85:main.c        ****     0b00000000,
  86:main.c        ****     0b00000000
  87:main.c        **** };
ARM GAS  C:\Users\uemre\AppData\Local\Temp\ccoGRYeJ.s 			page 3


  88:main.c        **** uint8_t dotMatrix_8[ROWS] = {
  89:main.c        ****     0b00000000,
  90:main.c        ****     0b00000000,
  91:main.c        ****     0b00000000,
  92:main.c        ****     0b00010000,
  93:main.c        ****     0b00000000,
  94:main.c        ****     0b00000000,
  95:main.c        ****     0b00000000,
  96:main.c        ****     0b00000000
  97:main.c        **** };
  98:main.c        **** void displayDotMatrix_7() {
  28              		.loc 1 98 0
  29              		.cfi_startproc
  30              		@ args = 0, pretend = 0, frame = 0
  31              		@ frame_needed = 0, uses_anonymous_args = 0
  32 0000 10B5     		push	{r4, lr}
  33              		.cfi_def_cfa_offset 8
  34              		.cfi_offset 4, -8
  35              		.cfi_offset 14, -4
  36              	.LVL0:
  37              	.LBB2:
  99:main.c        ****     for (int row = 0; row < ROWS; row++) {
  38              		.loc 1 99 0
  39 0002 0024     		movs	r4, #0
  40 0004 10E0     		b	.L2
  41              	.LVL1:
  42              	.L3:
 100:main.c        ****         Pin_Row_Write(~(1 << row)); 
  43              		.loc 1 100 0 discriminator 3
  44 0006 0120     		movs	r0, #1
  45 0008 A040     		lsls	r0, r0, r4
  46 000a C043     		mvns	r0, r0
  47 000c C0B2     		uxtb	r0, r0
  48 000e FFF7FEFF 		bl	Pin_Row_Write
  49              	.LVL2:
 101:main.c        ****         Pin_Col_Write(dotMatrix_7[row]); 
  50              		.loc 1 101 0 discriminator 3
  51 0012 074B     		ldr	r3, .L4
  52 0014 185D     		ldrb	r0, [r3, r4]
  53 0016 FFF7FEFF 		bl	Pin_Col_Write
  54              	.LVL3:
 102:main.c        ****         CyDelay(40); 
  55              		.loc 1 102 0 discriminator 3
  56 001a 2820     		movs	r0, #40
  57 001c FFF7FEFF 		bl	CyDelay
  58              	.LVL4:
 103:main.c        ****         Pin_Row_Write(0); 
  59              		.loc 1 103 0 discriminator 3
  60 0020 0020     		movs	r0, #0
  61 0022 FFF7FEFF 		bl	Pin_Row_Write
  62              	.LVL5:
  99:main.c        ****         Pin_Row_Write(~(1 << row)); 
  63              		.loc 1 99 0 discriminator 3
  64 0026 0134     		adds	r4, r4, #1
  65              	.LVL6:
  66              	.L2:
  99:main.c        ****         Pin_Row_Write(~(1 << row)); 
ARM GAS  C:\Users\uemre\AppData\Local\Temp\ccoGRYeJ.s 			page 4


  67              		.loc 1 99 0 is_stmt 0 discriminator 1
  68 0028 072C     		cmp	r4, #7
  69 002a ECDD     		ble	.L3
  70              	.LBE2:
 104:main.c        ****         
 105:main.c        ****     }
 106:main.c        **** }
  71              		.loc 1 106 0 is_stmt 1
  72              		@ sp needed
  73              	.LVL7:
  74 002c 10BD     		pop	{r4, pc}
  75              	.L5:
  76 002e C046     		.align	2
  77              	.L4:
  78 0030 00000000 		.word	.LANCHOR0
  79              		.cfi_endproc
  80              	.LFE32:
  81              		.size	displayDotMatrix_7, .-displayDotMatrix_7
  82              		.section	.text.displayDotMatrix_5,"ax",%progbits
  83              		.align	2
  84              		.global	displayDotMatrix_5
  85              		.code	16
  86              		.thumb_func
  87              		.type	displayDotMatrix_5, %function
  88              	displayDotMatrix_5:
  89              	.LFB33:
 107:main.c        **** void displayDotMatrix_5() {
  90              		.loc 1 107 0
  91              		.cfi_startproc
  92              		@ args = 0, pretend = 0, frame = 0
  93              		@ frame_needed = 0, uses_anonymous_args = 0
  94 0000 10B5     		push	{r4, lr}
  95              		.cfi_def_cfa_offset 8
  96              		.cfi_offset 4, -8
  97              		.cfi_offset 14, -4
  98              	.LVL8:
  99              	.LBB3:
 108:main.c        ****     for (int row = 0; row < ROWS; row++) {
 100              		.loc 1 108 0
 101 0002 0024     		movs	r4, #0
 102 0004 11E0     		b	.L7
 103              	.LVL9:
 104              	.L8:
 109:main.c        ****         Pin_Row_Write(~(1 << row)); 
 105              		.loc 1 109 0 discriminator 3
 106 0006 0120     		movs	r0, #1
 107 0008 A040     		lsls	r0, r0, r4
 108 000a C043     		mvns	r0, r0
 109 000c C0B2     		uxtb	r0, r0
 110 000e FFF7FEFF 		bl	Pin_Row_Write
 111              	.LVL10:
 110:main.c        ****         Pin_Col_Write(dotMatrix_5[row]); 
 112              		.loc 1 110 0 discriminator 3
 113 0012 074B     		ldr	r3, .L9
 114 0014 1B19     		adds	r3, r3, r4
 115 0016 187A     		ldrb	r0, [r3, #8]
 116 0018 FFF7FEFF 		bl	Pin_Col_Write
ARM GAS  C:\Users\uemre\AppData\Local\Temp\ccoGRYeJ.s 			page 5


 117              	.LVL11:
 111:main.c        ****         CyDelay(40); 
 118              		.loc 1 111 0 discriminator 3
 119 001c 2820     		movs	r0, #40
 120 001e FFF7FEFF 		bl	CyDelay
 121              	.LVL12:
 112:main.c        ****         Pin_Row_Write(0); 
 122              		.loc 1 112 0 discriminator 3
 123 0022 0020     		movs	r0, #0
 124 0024 FFF7FEFF 		bl	Pin_Row_Write
 125              	.LVL13:
 108:main.c        ****         Pin_Row_Write(~(1 << row)); 
 126              		.loc 1 108 0 discriminator 3
 127 0028 0134     		adds	r4, r4, #1
 128              	.LVL14:
 129              	.L7:
 108:main.c        ****         Pin_Row_Write(~(1 << row)); 
 130              		.loc 1 108 0 is_stmt 0 discriminator 1
 131 002a 072C     		cmp	r4, #7
 132 002c EBDD     		ble	.L8
 133              	.LBE3:
 113:main.c        ****     }
 114:main.c        **** }
 134              		.loc 1 114 0 is_stmt 1
 135              		@ sp needed
 136              	.LVL15:
 137 002e 10BD     		pop	{r4, pc}
 138              	.L10:
 139              		.align	2
 140              	.L9:
 141 0030 00000000 		.word	.LANCHOR0
 142              		.cfi_endproc
 143              	.LFE33:
 144              		.size	displayDotMatrix_5, .-displayDotMatrix_5
 145              		.section	.text.displayDotMatrix_8,"ax",%progbits
 146              		.align	2
 147              		.global	displayDotMatrix_8
 148              		.code	16
 149              		.thumb_func
 150              		.type	displayDotMatrix_8, %function
 151              	displayDotMatrix_8:
 152              	.LFB34:
 115:main.c        **** void displayDotMatrix_8() {
 153              		.loc 1 115 0
 154              		.cfi_startproc
 155              		@ args = 0, pretend = 0, frame = 0
 156              		@ frame_needed = 0, uses_anonymous_args = 0
 157 0000 10B5     		push	{r4, lr}
 158              		.cfi_def_cfa_offset 8
 159              		.cfi_offset 4, -8
 160              		.cfi_offset 14, -4
 161              	.LVL16:
 162              	.LBB4:
 116:main.c        ****     for (int row = 0; row<ROWS; row++) {
 163              		.loc 1 116 0
 164 0002 0024     		movs	r4, #0
 165 0004 11E0     		b	.L12
ARM GAS  C:\Users\uemre\AppData\Local\Temp\ccoGRYeJ.s 			page 6


 166              	.LVL17:
 167              	.L13:
 117:main.c        ****         Pin_Row_Write(~(1 << row)); 
 168              		.loc 1 117 0 discriminator 3
 169 0006 0120     		movs	r0, #1
 170 0008 A040     		lsls	r0, r0, r4
 171 000a C043     		mvns	r0, r0
 172 000c C0B2     		uxtb	r0, r0
 173 000e FFF7FEFF 		bl	Pin_Row_Write
 174              	.LVL18:
 118:main.c        ****         Pin_Col_Write(dotMatrix_8[row]); 
 175              		.loc 1 118 0 discriminator 3
 176 0012 074B     		ldr	r3, .L14
 177 0014 1B19     		adds	r3, r3, r4
 178 0016 187C     		ldrb	r0, [r3, #16]
 179 0018 FFF7FEFF 		bl	Pin_Col_Write
 180              	.LVL19:
 119:main.c        ****         CyDelay(40); 
 181              		.loc 1 119 0 discriminator 3
 182 001c 2820     		movs	r0, #40
 183 001e FFF7FEFF 		bl	CyDelay
 184              	.LVL20:
 120:main.c        ****         Pin_Row_Write(0);
 185              		.loc 1 120 0 discriminator 3
 186 0022 0020     		movs	r0, #0
 187 0024 FFF7FEFF 		bl	Pin_Row_Write
 188              	.LVL21:
 116:main.c        ****         Pin_Row_Write(~(1 << row)); 
 189              		.loc 1 116 0 discriminator 3
 190 0028 0134     		adds	r4, r4, #1
 191              	.LVL22:
 192              	.L12:
 116:main.c        ****         Pin_Row_Write(~(1 << row)); 
 193              		.loc 1 116 0 is_stmt 0 discriminator 1
 194 002a 072C     		cmp	r4, #7
 195 002c EBDD     		ble	.L13
 196              	.LBE4:
 121:main.c        ****     }
 122:main.c        **** }
 197              		.loc 1 122 0 is_stmt 1
 198              		@ sp needed
 199              	.LVL23:
 200 002e 10BD     		pop	{r4, pc}
 201              	.L15:
 202              		.align	2
 203              	.L14:
 204 0030 00000000 		.word	.LANCHOR0
 205              		.cfi_endproc
 206              	.LFE34:
 207              		.size	displayDotMatrix_8, .-displayDotMatrix_8
 208              		.section	.text.displayDotMatrix_2,"ax",%progbits
 209              		.align	2
 210              		.global	displayDotMatrix_2
 211              		.code	16
 212              		.thumb_func
 213              		.type	displayDotMatrix_2, %function
 214              	displayDotMatrix_2:
ARM GAS  C:\Users\uemre\AppData\Local\Temp\ccoGRYeJ.s 			page 7


 215              	.LFB35:
 123:main.c        **** void displayDotMatrix_2() {
 216              		.loc 1 123 0
 217              		.cfi_startproc
 218              		@ args = 0, pretend = 0, frame = 0
 219              		@ frame_needed = 0, uses_anonymous_args = 0
 220 0000 10B5     		push	{r4, lr}
 221              		.cfi_def_cfa_offset 8
 222              		.cfi_offset 4, -8
 223              		.cfi_offset 14, -4
 224              	.LVL24:
 225              	.LBB5:
 124:main.c        ****     for (int row = ROWS-1; row >= 0; row--) {
 226              		.loc 1 124 0
 227 0002 0724     		movs	r4, #7
 228 0004 11E0     		b	.L17
 229              	.LVL25:
 230              	.L18:
 125:main.c        ****         Pin_Row_Write(~(1 << row)); 
 231              		.loc 1 125 0 discriminator 3
 232 0006 0120     		movs	r0, #1
 233 0008 A040     		lsls	r0, r0, r4
 234 000a C043     		mvns	r0, r0
 235 000c C0B2     		uxtb	r0, r0
 236 000e FFF7FEFF 		bl	Pin_Row_Write
 237              	.LVL26:
 126:main.c        ****         Pin_Col_Write(dotMatrix_2[row]); 
 238              		.loc 1 126 0 discriminator 3
 239 0012 074B     		ldr	r3, .L19
 240 0014 1B19     		adds	r3, r3, r4
 241 0016 187E     		ldrb	r0, [r3, #24]
 242 0018 FFF7FEFF 		bl	Pin_Col_Write
 243              	.LVL27:
 127:main.c        ****         CyDelay(40);
 244              		.loc 1 127 0 discriminator 3
 245 001c 2820     		movs	r0, #40
 246 001e FFF7FEFF 		bl	CyDelay
 247              	.LVL28:
 128:main.c        ****         Pin_Row_Write(0); 
 248              		.loc 1 128 0 discriminator 3
 249 0022 0020     		movs	r0, #0
 250 0024 FFF7FEFF 		bl	Pin_Row_Write
 251              	.LVL29:
 124:main.c        ****         Pin_Row_Write(~(1 << row)); 
 252              		.loc 1 124 0 discriminator 3
 253 0028 013C     		subs	r4, r4, #1
 254              	.LVL30:
 255              	.L17:
 124:main.c        ****         Pin_Row_Write(~(1 << row)); 
 256              		.loc 1 124 0 is_stmt 0 discriminator 1
 257 002a 002C     		cmp	r4, #0
 258 002c EBDA     		bge	.L18
 259              	.LBE5:
 129:main.c        ****     }
 130:main.c        **** }
 260              		.loc 1 130 0 is_stmt 1
 261              		@ sp needed
ARM GAS  C:\Users\uemre\AppData\Local\Temp\ccoGRYeJ.s 			page 8


 262              	.LVL31:
 263 002e 10BD     		pop	{r4, pc}
 264              	.L20:
 265              		.align	2
 266              	.L19:
 267 0030 00000000 		.word	.LANCHOR0
 268              		.cfi_endproc
 269              	.LFE35:
 270              		.size	displayDotMatrix_2, .-displayDotMatrix_2
 271              		.section	.text.displayDotMatrix_3,"ax",%progbits
 272              		.align	2
 273              		.global	displayDotMatrix_3
 274              		.code	16
 275              		.thumb_func
 276              		.type	displayDotMatrix_3, %function
 277              	displayDotMatrix_3:
 278              	.LFB36:
 131:main.c        **** 
 132:main.c        **** void displayDotMatrix_3() {
 279              		.loc 1 132 0
 280              		.cfi_startproc
 281              		@ args = 0, pretend = 0, frame = 0
 282              		@ frame_needed = 0, uses_anonymous_args = 0
 283 0000 10B5     		push	{r4, lr}
 284              		.cfi_def_cfa_offset 8
 285              		.cfi_offset 4, -8
 286              		.cfi_offset 14, -4
 287              	.LVL32:
 288              	.LBB6:
 133:main.c        ****     for (int row = 0; row < ROWS; row++) {
 289              		.loc 1 133 0
 290 0002 0024     		movs	r4, #0
 291 0004 12E0     		b	.L22
 292              	.LVL33:
 293              	.L23:
 134:main.c        ****         Pin_Row_Write(~(1 << row)); 
 294              		.loc 1 134 0 discriminator 3
 295 0006 0120     		movs	r0, #1
 296 0008 A040     		lsls	r0, r0, r4
 297 000a C043     		mvns	r0, r0
 298 000c C0B2     		uxtb	r0, r0
 299 000e FFF7FEFF 		bl	Pin_Row_Write
 300              	.LVL34:
 135:main.c        ****         Pin_Col_Write(dotMatrix_3[row]); 
 301              		.loc 1 135 0 discriminator 3
 302 0012 084B     		ldr	r3, .L24
 303 0014 1B19     		adds	r3, r3, r4
 304 0016 2022     		movs	r2, #32
 305 0018 985C     		ldrb	r0, [r3, r2]
 306 001a FFF7FEFF 		bl	Pin_Col_Write
 307              	.LVL35:
 136:main.c        ****         CyDelay(40); 
 308              		.loc 1 136 0 discriminator 3
 309 001e 2820     		movs	r0, #40
 310 0020 FFF7FEFF 		bl	CyDelay
 311              	.LVL36:
 137:main.c        ****         Pin_Row_Write(0); 
ARM GAS  C:\Users\uemre\AppData\Local\Temp\ccoGRYeJ.s 			page 9


 312              		.loc 1 137 0 discriminator 3
 313 0024 0020     		movs	r0, #0
 314 0026 FFF7FEFF 		bl	Pin_Row_Write
 315              	.LVL37:
 133:main.c        ****         Pin_Row_Write(~(1 << row)); 
 316              		.loc 1 133 0 discriminator 3
 317 002a 0134     		adds	r4, r4, #1
 318              	.LVL38:
 319              	.L22:
 133:main.c        ****         Pin_Row_Write(~(1 << row)); 
 320              		.loc 1 133 0 is_stmt 0 discriminator 1
 321 002c 072C     		cmp	r4, #7
 322 002e EADD     		ble	.L23
 323              	.LBE6:
 138:main.c        ****     }
 139:main.c        **** }
 324              		.loc 1 139 0 is_stmt 1
 325              		@ sp needed
 326              	.LVL39:
 327 0030 10BD     		pop	{r4, pc}
 328              	.L25:
 329 0032 C046     		.align	2
 330              	.L24:
 331 0034 00000000 		.word	.LANCHOR0
 332              		.cfi_endproc
 333              	.LFE36:
 334              		.size	displayDotMatrix_3, .-displayDotMatrix_3
 335              		.section	.text.displayDotMatrix_4,"ax",%progbits
 336              		.align	2
 337              		.global	displayDotMatrix_4
 338              		.code	16
 339              		.thumb_func
 340              		.type	displayDotMatrix_4, %function
 341              	displayDotMatrix_4:
 342              	.LFB37:
 140:main.c        **** void displayDotMatrix_4() {
 343              		.loc 1 140 0
 344              		.cfi_startproc
 345              		@ args = 0, pretend = 0, frame = 0
 346              		@ frame_needed = 0, uses_anonymous_args = 0
 347 0000 10B5     		push	{r4, lr}
 348              		.cfi_def_cfa_offset 8
 349              		.cfi_offset 4, -8
 350              		.cfi_offset 14, -4
 351              	.LVL40:
 352              	.LBB7:
 141:main.c        ****     for (int row = ROWS; row >= 0; row--) {
 353              		.loc 1 141 0
 354 0002 0824     		movs	r4, #8
 355 0004 12E0     		b	.L27
 356              	.LVL41:
 357              	.L28:
 142:main.c        ****         Pin_Row_Write(~(1 << row)); 
 358              		.loc 1 142 0 discriminator 3
 359 0006 0120     		movs	r0, #1
 360 0008 A040     		lsls	r0, r0, r4
 361 000a C043     		mvns	r0, r0
ARM GAS  C:\Users\uemre\AppData\Local\Temp\ccoGRYeJ.s 			page 10


 362 000c C0B2     		uxtb	r0, r0
 363 000e FFF7FEFF 		bl	Pin_Row_Write
 364              	.LVL42:
 143:main.c        ****         Pin_Col_Write(dotMatrix_4[row]); 
 365              		.loc 1 143 0 discriminator 3
 366 0012 084B     		ldr	r3, .L29
 367 0014 1B19     		adds	r3, r3, r4
 368 0016 2822     		movs	r2, #40
 369 0018 985C     		ldrb	r0, [r3, r2]
 370 001a FFF7FEFF 		bl	Pin_Col_Write
 371              	.LVL43:
 144:main.c        ****         CyDelay(40); 
 372              		.loc 1 144 0 discriminator 3
 373 001e 2820     		movs	r0, #40
 374 0020 FFF7FEFF 		bl	CyDelay
 375              	.LVL44:
 145:main.c        ****         Pin_Row_Write(0);
 376              		.loc 1 145 0 discriminator 3
 377 0024 0020     		movs	r0, #0
 378 0026 FFF7FEFF 		bl	Pin_Row_Write
 379              	.LVL45:
 141:main.c        ****         Pin_Row_Write(~(1 << row)); 
 380              		.loc 1 141 0 discriminator 3
 381 002a 013C     		subs	r4, r4, #1
 382              	.LVL46:
 383              	.L27:
 141:main.c        ****         Pin_Row_Write(~(1 << row)); 
 384              		.loc 1 141 0 is_stmt 0 discriminator 1
 385 002c 002C     		cmp	r4, #0
 386 002e EADA     		bge	.L28
 387              	.LBE7:
 146:main.c        ****      
 147:main.c        ****     }
 148:main.c        **** }
 388              		.loc 1 148 0 is_stmt 1
 389              		@ sp needed
 390              	.LVL47:
 391 0030 10BD     		pop	{r4, pc}
 392              	.L30:
 393 0032 C046     		.align	2
 394              	.L29:
 395 0034 00000000 		.word	.LANCHOR0
 396              		.cfi_endproc
 397              	.LFE37:
 398              		.size	displayDotMatrix_4, .-displayDotMatrix_4
 399              		.section	.text.clearDotMatrix,"ax",%progbits
 400              		.align	2
 401              		.global	clearDotMatrix
 402              		.code	16
 403              		.thumb_func
 404              		.type	clearDotMatrix, %function
 405              	clearDotMatrix:
 406              	.LFB38:
 149:main.c        **** 
 150:main.c        **** void clearDotMatrix() {
 407              		.loc 1 150 0
 408              		.cfi_startproc
ARM GAS  C:\Users\uemre\AppData\Local\Temp\ccoGRYeJ.s 			page 11


 409              		@ args = 0, pretend = 0, frame = 0
 410              		@ frame_needed = 0, uses_anonymous_args = 0
 411 0000 10B5     		push	{r4, lr}
 412              		.cfi_def_cfa_offset 8
 413              		.cfi_offset 4, -8
 414              		.cfi_offset 14, -4
 415              	.LVL48:
 416              	.LBB8:
 151:main.c        ****     for (int row = 0; row < ROWS; row++) {
 417              		.loc 1 151 0
 418 0002 0024     		movs	r4, #0
 419 0004 0CE0     		b	.L32
 420              	.LVL49:
 421              	.L33:
 152:main.c        ****         Pin_Row_Write(~(1 << row));
 422              		.loc 1 152 0 discriminator 3
 423 0006 0120     		movs	r0, #1
 424 0008 A040     		lsls	r0, r0, r4
 425 000a C043     		mvns	r0, r0
 426 000c C0B2     		uxtb	r0, r0
 427 000e FFF7FEFF 		bl	Pin_Row_Write
 428              	.LVL50:
 153:main.c        ****         Pin_Col_Write(0); 
 429              		.loc 1 153 0 discriminator 3
 430 0012 0020     		movs	r0, #0
 431 0014 FFF7FEFF 		bl	Pin_Col_Write
 432              	.LVL51:
 154:main.c        ****         
 155:main.c        ****         Pin_Row_Write(0); 
 433              		.loc 1 155 0 discriminator 3
 434 0018 0020     		movs	r0, #0
 435 001a FFF7FEFF 		bl	Pin_Row_Write
 436              	.LVL52:
 151:main.c        ****         Pin_Row_Write(~(1 << row));
 437              		.loc 1 151 0 discriminator 3
 438 001e 0134     		adds	r4, r4, #1
 439              	.LVL53:
 440              	.L32:
 151:main.c        ****         Pin_Row_Write(~(1 << row));
 441              		.loc 1 151 0 is_stmt 0 discriminator 1
 442 0020 072C     		cmp	r4, #7
 443 0022 F0DD     		ble	.L33
 444              	.LBE8:
 156:main.c        ****     }
 157:main.c        **** }
 445              		.loc 1 157 0 is_stmt 1
 446              		@ sp needed
 447              	.LVL54:
 448 0024 10BD     		pop	{r4, pc}
 449              		.cfi_endproc
 450              	.LFE38:
 451              		.size	clearDotMatrix, .-clearDotMatrix
 452 0026 C046     		.section	.text.displayDotMatrix_6,"ax",%progbits
 453              		.align	2
 454              		.global	displayDotMatrix_6
 455              		.code	16
 456              		.thumb_func
ARM GAS  C:\Users\uemre\AppData\Local\Temp\ccoGRYeJ.s 			page 12


 457              		.type	displayDotMatrix_6, %function
 458              	displayDotMatrix_6:
 459              	.LFB39:
 158:main.c        **** void displayDotMatrix_6() {
 460              		.loc 1 158 0
 461              		.cfi_startproc
 462              		@ args = 0, pretend = 0, frame = 0
 463              		@ frame_needed = 0, uses_anonymous_args = 0
 464 0000 10B5     		push	{r4, lr}
 465              		.cfi_def_cfa_offset 8
 466              		.cfi_offset 4, -8
 467              		.cfi_offset 14, -4
 468              	.LVL55:
 469              	.LBB9:
 159:main.c        ****     for (int row = ROWS-1; row >= 0; row--) {
 470              		.loc 1 159 0
 471 0002 0724     		movs	r4, #7
 472 0004 12E0     		b	.L35
 473              	.LVL56:
 474              	.L36:
 160:main.c        ****         Pin_Row_Write(~(1 << row)); 
 475              		.loc 1 160 0 discriminator 3
 476 0006 0120     		movs	r0, #1
 477 0008 A040     		lsls	r0, r0, r4
 478 000a C043     		mvns	r0, r0
 479 000c C0B2     		uxtb	r0, r0
 480 000e FFF7FEFF 		bl	Pin_Row_Write
 481              	.LVL57:
 161:main.c        ****         Pin_Col_Write(dotMatrix_6[row]);
 482              		.loc 1 161 0 discriminator 3
 483 0012 084B     		ldr	r3, .L37
 484 0014 1B19     		adds	r3, r3, r4
 485 0016 3022     		movs	r2, #48
 486 0018 985C     		ldrb	r0, [r3, r2]
 487 001a FFF7FEFF 		bl	Pin_Col_Write
 488              	.LVL58:
 162:main.c        ****         CyDelay(40); 
 489              		.loc 1 162 0 discriminator 3
 490 001e 2820     		movs	r0, #40
 491 0020 FFF7FEFF 		bl	CyDelay
 492              	.LVL59:
 163:main.c        ****         Pin_Row_Write(0);
 493              		.loc 1 163 0 discriminator 3
 494 0024 0020     		movs	r0, #0
 495 0026 FFF7FEFF 		bl	Pin_Row_Write
 496              	.LVL60:
 159:main.c        ****         Pin_Row_Write(~(1 << row)); 
 497              		.loc 1 159 0 discriminator 3
 498 002a 013C     		subs	r4, r4, #1
 499              	.LVL61:
 500              	.L35:
 159:main.c        ****         Pin_Row_Write(~(1 << row)); 
 501              		.loc 1 159 0 is_stmt 0 discriminator 1
 502 002c 002C     		cmp	r4, #0
 503 002e EADA     		bge	.L36
 504              	.LBE9:
 164:main.c        ****    
ARM GAS  C:\Users\uemre\AppData\Local\Temp\ccoGRYeJ.s 			page 13


 165:main.c        ****     }
 166:main.c        **** }
 505              		.loc 1 166 0 is_stmt 1
 506              		@ sp needed
 507              	.LVL62:
 508 0030 10BD     		pop	{r4, pc}
 509              	.L38:
 510 0032 C046     		.align	2
 511              	.L37:
 512 0034 00000000 		.word	.LANCHOR0
 513              		.cfi_endproc
 514              	.LFE39:
 515              		.size	displayDotMatrix_6, .-displayDotMatrix_6
 516              		.section	.text.delay,"ax",%progbits
 517              		.align	2
 518              		.global	delay
 519              		.code	16
 520              		.thumb_func
 521              		.type	delay, %function
 522              	delay:
 523              	.LFB40:
 167:main.c        **** 
 168:main.c        ****   void delay(void (*func)()) {
 524              		.loc 1 168 0
 525              		.cfi_startproc
 526              		@ args = 0, pretend = 0, frame = 0
 527              		@ frame_needed = 0, uses_anonymous_args = 0
 528              	.LVL63:
 529 0000 70B5     		push	{r4, r5, r6, lr}
 530              		.cfi_def_cfa_offset 16
 531              		.cfi_offset 4, -16
 532              		.cfi_offset 5, -12
 533              		.cfi_offset 6, -8
 534              		.cfi_offset 14, -4
 535 0002 0500     		movs	r5, r0
 536              	.LVL64:
 169:main.c        ****     int count;
 170:main.c        ****     for (count = 0; count < 10; count++) {
 537              		.loc 1 170 0
 538 0004 0024     		movs	r4, #0
 539 0006 01E0     		b	.L40
 540              	.LVL65:
 541              	.L41:
 171:main.c        ****         func();
 542              		.loc 1 171 0 discriminator 3
 543 0008 A847     		blx	r5
 544              	.LVL66:
 170:main.c        ****         func();
 545              		.loc 1 170 0 discriminator 3
 546 000a 0134     		adds	r4, r4, #1
 547              	.LVL67:
 548              	.L40:
 170:main.c        ****         func();
 549              		.loc 1 170 0 is_stmt 0 discriminator 1
 550 000c 092C     		cmp	r4, #9
 551 000e FBDD     		ble	.L41
 172:main.c        ****     }}
ARM GAS  C:\Users\uemre\AppData\Local\Temp\ccoGRYeJ.s 			page 14


 552              		.loc 1 172 0 is_stmt 1
 553              		@ sp needed
 554              	.LVL68:
 555              	.LVL69:
 556 0010 70BD     		pop	{r4, r5, r6, pc}
 557              		.cfi_endproc
 558              	.LFE40:
 559              		.size	delay, .-delay
 560 0012 C046     		.section	.text.displayDotMatrix_1,"ax",%progbits
 561              		.align	2
 562              		.global	displayDotMatrix_1
 563              		.code	16
 564              		.thumb_func
 565              		.type	displayDotMatrix_1, %function
 566              	displayDotMatrix_1:
 567              	.LFB41:
 173:main.c        **** void displayDotMatrix_1() {
 568              		.loc 1 173 0
 569              		.cfi_startproc
 570              		@ args = 0, pretend = 0, frame = 0
 571              		@ frame_needed = 0, uses_anonymous_args = 0
 572 0000 10B5     		push	{r4, lr}
 573              		.cfi_def_cfa_offset 8
 574              		.cfi_offset 4, -8
 575              		.cfi_offset 14, -4
 576              	.LVL70:
 577              	.LBB10:
 174:main.c        ****     for (int row = 0; row < ROWS; row++) {
 578              		.loc 1 174 0
 579 0002 0024     		movs	r4, #0
 580 0004 12E0     		b	.L43
 581              	.LVL71:
 582              	.L44:
 175:main.c        ****         Pin_Row_Write(~(1 << row)); 
 583              		.loc 1 175 0 discriminator 3
 584 0006 0120     		movs	r0, #1
 585 0008 A040     		lsls	r0, r0, r4
 586 000a C043     		mvns	r0, r0
 587 000c C0B2     		uxtb	r0, r0
 588 000e FFF7FEFF 		bl	Pin_Row_Write
 589              	.LVL72:
 176:main.c        ****         Pin_Col_Write(dotMatrix_1[row]); 
 590              		.loc 1 176 0 discriminator 3
 591 0012 084B     		ldr	r3, .L45
 592 0014 1B19     		adds	r3, r3, r4
 593 0016 3822     		movs	r2, #56
 594 0018 985C     		ldrb	r0, [r3, r2]
 595 001a FFF7FEFF 		bl	Pin_Col_Write
 596              	.LVL73:
 177:main.c        ****         CyDelay(40); 
 597              		.loc 1 177 0 discriminator 3
 598 001e 2820     		movs	r0, #40
 599 0020 FFF7FEFF 		bl	CyDelay
 600              	.LVL74:
 178:main.c        ****         Pin_Row_Write(0);
 601              		.loc 1 178 0 discriminator 3
 602 0024 0020     		movs	r0, #0
ARM GAS  C:\Users\uemre\AppData\Local\Temp\ccoGRYeJ.s 			page 15


 603 0026 FFF7FEFF 		bl	Pin_Row_Write
 604              	.LVL75:
 174:main.c        ****         Pin_Row_Write(~(1 << row)); 
 605              		.loc 1 174 0 discriminator 3
 606 002a 0134     		adds	r4, r4, #1
 607              	.LVL76:
 608              	.L43:
 174:main.c        ****         Pin_Row_Write(~(1 << row)); 
 609              		.loc 1 174 0 is_stmt 0 discriminator 1
 610 002c 072C     		cmp	r4, #7
 611 002e EADD     		ble	.L44
 612              	.LBE10:
 179:main.c        ****      
 180:main.c        ****     }
 181:main.c        **** }
 613              		.loc 1 181 0 is_stmt 1
 614              		@ sp needed
 615              	.LVL77:
 616 0030 10BD     		pop	{r4, pc}
 617              	.L46:
 618 0032 C046     		.align	2
 619              	.L45:
 620 0034 00000000 		.word	.LANCHOR0
 621              		.cfi_endproc
 622              	.LFE41:
 623              		.size	displayDotMatrix_1, .-displayDotMatrix_1
 624              		.section	.text.main,"ax",%progbits
 625              		.align	2
 626              		.global	main
 627              		.code	16
 628              		.thumb_func
 629              		.type	main, %function
 630              	main:
 631              	.LFB42:
 182:main.c        **** 
 183:main.c        **** 
 184:main.c        **** int main(void){
 632              		.loc 1 184 0
 633              		.cfi_startproc
 634              		@ Volatile: function does not return.
 635              		@ args = 0, pretend = 0, frame = 0
 636              		@ frame_needed = 0, uses_anonymous_args = 0
 637 0000 10B5     		push	{r4, lr}
 638              		.cfi_def_cfa_offset 8
 639              		.cfi_offset 4, -8
 640              		.cfi_offset 14, -4
 185:main.c        **** 
 186:main.c        ****     CyGlobalIntEnable; 
 641              		.loc 1 186 0
 642              		.syntax divided
 643              	@ 186 "main.c" 1
 644 0002 62B6     		CPSIE   i
 645              	@ 0 "" 2
 646              		.thumb
 647              		.syntax unified
 648              	.L48:
 187:main.c        ****    for(;;){
ARM GAS  C:\Users\uemre\AppData\Local\Temp\ccoGRYeJ.s 			page 16


 188:main.c        ****         
 189:main.c        ****     displayDotMatrix_1();
 649              		.loc 1 189 0 discriminator 1
 650 0004 FFF7FEFF 		bl	displayDotMatrix_1
 651              	.LVL78:
 190:main.c        ****     displayDotMatrix_2();
 652              		.loc 1 190 0 discriminator 1
 653 0008 FFF7FEFF 		bl	displayDotMatrix_2
 654              	.LVL79:
 191:main.c        ****     displayDotMatrix_3();
 655              		.loc 1 191 0 discriminator 1
 656 000c FFF7FEFF 		bl	displayDotMatrix_3
 657              	.LVL80:
 192:main.c        ****     displayDotMatrix_4();
 658              		.loc 1 192 0 discriminator 1
 659 0010 FFF7FEFF 		bl	displayDotMatrix_4
 660              	.LVL81:
 193:main.c        ****     displayDotMatrix_5();
 661              		.loc 1 193 0 discriminator 1
 662 0014 FFF7FEFF 		bl	displayDotMatrix_5
 663              	.LVL82:
 194:main.c        ****     displayDotMatrix_6();
 664              		.loc 1 194 0 discriminator 1
 665 0018 FFF7FEFF 		bl	displayDotMatrix_6
 666              	.LVL83:
 195:main.c        ****     displayDotMatrix_7();
 667              		.loc 1 195 0 discriminator 1
 668 001c FFF7FEFF 		bl	displayDotMatrix_7
 669              	.LVL84:
 196:main.c        ****     displayDotMatrix_8();
 670              		.loc 1 196 0 discriminator 1
 671 0020 FFF7FEFF 		bl	displayDotMatrix_8
 672              	.LVL85:
 197:main.c        ****   CyDelay(1000);
 673              		.loc 1 197 0 discriminator 1
 674 0024 FA20     		movs	r0, #250
 675 0026 8000     		lsls	r0, r0, #2
 676 0028 FFF7FEFF 		bl	CyDelay
 677              	.LVL86:
 678 002c EAE7     		b	.L48
 679              		.cfi_endproc
 680              	.LFE42:
 681              		.size	main, .-main
 682              		.global	dotMatrix_8
 683              		.global	dotMatrix_7
 684              		.global	dotMatrix_5
 685              		.global	dotMatrix_4
 686              		.global	dotMatrix_3
 687              		.global	dotMatrix_2
 688              		.global	dotMatrix_6
 689              		.global	dotMatrix_1
 690 002e C046     		.data
 691              		.align	2
 692              		.set	.LANCHOR0,. + 0
 693              		.type	dotMatrix_7, %object
 694              		.size	dotMatrix_7, 8
 695              	dotMatrix_7:
ARM GAS  C:\Users\uemre\AppData\Local\Temp\ccoGRYeJ.s 			page 17


 696 0000 00       		.byte	0
 697 0001 00       		.byte	0
 698 0002 08       		.byte	8
 699 0003 08       		.byte	8
 700 0004 18       		.byte	24
 701 0005 00       		.byte	0
 702 0006 00       		.byte	0
 703 0007 00       		.byte	0
 704              		.type	dotMatrix_5, %object
 705              		.size	dotMatrix_5, 8
 706              	dotMatrix_5:
 707 0008 00       		.byte	0
 708 0009 04       		.byte	4
 709 000a 04       		.byte	4
 710 000b 04       		.byte	4
 711 000c 04       		.byte	4
 712 000d 3C       		.byte	60
 713 000e 00       		.byte	0
 714 000f 00       		.byte	0
 715              		.type	dotMatrix_8, %object
 716              		.size	dotMatrix_8, 8
 717              	dotMatrix_8:
 718 0010 00       		.byte	0
 719 0011 00       		.byte	0
 720 0012 00       		.byte	0
 721 0013 10       		.byte	16
 722 0014 00       		.byte	0
 723 0015 00       		.byte	0
 724 0016 00       		.byte	0
 725 0017 00       		.byte	0
 726              		.type	dotMatrix_2, %object
 727              		.size	dotMatrix_2, 8
 728              	dotMatrix_2:
 729 0018 FE       		.byte	-2
 730 0019 80       		.byte	-128
 731 001a 80       		.byte	-128
 732 001b 80       		.byte	-128
 733 001c 80       		.byte	-128
 734 001d 80       		.byte	-128
 735 001e 80       		.byte	-128
 736 001f 80       		.byte	-128
 737              		.type	dotMatrix_3, %object
 738              		.size	dotMatrix_3, 8
 739              	dotMatrix_3:
 740 0020 02       		.byte	2
 741 0021 02       		.byte	2
 742 0022 02       		.byte	2
 743 0023 02       		.byte	2
 744 0024 02       		.byte	2
 745 0025 02       		.byte	2
 746 0026 7E       		.byte	126
 747 0027 00       		.byte	0
 748              		.type	dotMatrix_4, %object
 749              		.size	dotMatrix_4, 8
 750              	dotMatrix_4:
 751 0028 00       		.byte	0
 752 0029 7C       		.byte	124
ARM GAS  C:\Users\uemre\AppData\Local\Temp\ccoGRYeJ.s 			page 18


 753 002a 40       		.byte	64
 754 002b 40       		.byte	64
 755 002c 40       		.byte	64
 756 002d 40       		.byte	64
 757 002e 40       		.byte	64
 758 002f 00       		.byte	0
 759              		.type	dotMatrix_6, %object
 760              		.size	dotMatrix_6, 8
 761              	dotMatrix_6:
 762 0030 00       		.byte	0
 763 0031 00       		.byte	0
 764 0032 38       		.byte	56
 765 0033 20       		.byte	32
 766 0034 20       		.byte	32
 767 0035 20       		.byte	32
 768 0036 00       		.byte	0
 769 0037 00       		.byte	0
 770              		.type	dotMatrix_1, %object
 771              		.size	dotMatrix_1, 8
 772              	dotMatrix_1:
 773 0038 01       		.byte	1
 774 0039 01       		.byte	1
 775 003a 01       		.byte	1
 776 003b 01       		.byte	1
 777 003c 01       		.byte	1
 778 003d 01       		.byte	1
 779 003e 01       		.byte	1
 780 003f FF       		.byte	-1
 781              		.text
 782              	.Letext0:
 783              		.file 2 "c:\\program files (x86)\\cypress\\psoc creator\\4.4\\psoc creator\\import\\gnu\\arm\\5.4.
 784              		.file 3 "c:\\program files (x86)\\cypress\\psoc creator\\4.4\\psoc creator\\import\\gnu\\arm\\5.4.
 785              		.file 4 "Generated_Source\\PSoC4/Pin_Row.h"
 786              		.file 5 "Generated_Source\\PSoC4/Pin_Col.h"
 787              		.file 6 "Generated_Source\\PSoC4/CyLib.h"